
Atmel-GlueGun.elf:     file format elf32-avr

Sections:
Idx Name          Size      VMA       LMA       File off  Algn
  0 .text         0000015c  00000000  00000000  00000054  2**1
                  CONTENTS, ALLOC, LOAD, READONLY, CODE
  1 .data         00000000  00800060  00800060  000001b0  2**0
                  CONTENTS, ALLOC, LOAD, DATA
  2 .comment      00000030  00000000  00000000  000001b0  2**0
                  CONTENTS, READONLY
  3 .note.gnu.avr.deviceinfo 0000003c  00000000  00000000  000001e0  2**2
                  CONTENTS, READONLY
  4 .debug_info   000002dc  00000000  00000000  0000021c  2**0
                  CONTENTS, READONLY, DEBUGGING
  5 .debug_abbrev 000002b6  00000000  00000000  000004f8  2**0
                  CONTENTS, READONLY, DEBUGGING
  6 .debug_line   000000ca  00000000  00000000  000007ae  2**0
                  CONTENTS, READONLY, DEBUGGING
  7 .debug_str    00000100  00000000  00000000  00000878  2**0
                  CONTENTS, READONLY, DEBUGGING

Disassembly of section .text:

00000000 <__vectors>:
   0:	09 c0       	rjmp	.+18     	; 0x14 <__ctors_end>
   2:	19 c0       	rjmp	.+50     	; 0x36 <__bad_interrupt>
   4:	18 c0       	rjmp	.+48     	; 0x36 <__bad_interrupt>
   6:	17 c0       	rjmp	.+46     	; 0x36 <__bad_interrupt>
   8:	16 c0       	rjmp	.+44     	; 0x36 <__bad_interrupt>
   a:	15 c0       	rjmp	.+42     	; 0x36 <__bad_interrupt>
   c:	14 c0       	rjmp	.+40     	; 0x36 <__bad_interrupt>
   e:	13 c0       	rjmp	.+38     	; 0x36 <__bad_interrupt>
  10:	12 c0       	rjmp	.+36     	; 0x36 <__bad_interrupt>
  12:	11 c0       	rjmp	.+34     	; 0x36 <__bad_interrupt>

00000014 <__ctors_end>:
  14:	11 24       	eor	r1, r1
  16:	1f be       	out	0x3f, r1	; 63
  18:	cf e9       	ldi	r28, 0x9F	; 159
  1a:	cd bf       	out	0x3d, r28	; 61

0000001c <__do_copy_data>:
  1c:	10 e0       	ldi	r17, 0x00	; 0
  1e:	a0 e6       	ldi	r26, 0x60	; 96
  20:	b0 e0       	ldi	r27, 0x00	; 0
  22:	ec e5       	ldi	r30, 0x5C	; 92
  24:	f1 e0       	ldi	r31, 0x01	; 1
  26:	02 c0       	rjmp	.+4      	; 0x2c <__do_copy_data+0x10>
  28:	05 90       	lpm	r0, Z+
  2a:	0d 92       	st	X+, r0
  2c:	a0 36       	cpi	r26, 0x60	; 96
  2e:	b1 07       	cpc	r27, r17
  30:	d9 f7       	brne	.-10     	; 0x28 <__do_copy_data+0xc>
  32:	20 d0       	rcall	.+64     	; 0x74 <main>
  34:	91 c0       	rjmp	.+290    	; 0x158 <_exit>

00000036 <__bad_interrupt>:
  36:	e4 cf       	rjmp	.-56     	; 0x0 <__vectors>

00000038 <delay_ms>:
  38:	20 e0       	ldi	r18, 0x00	; 0
  3a:	30 e0       	ldi	r19, 0x00	; 0
  3c:	28 17       	cp	r18, r24
  3e:	39 07       	cpc	r19, r25
  40:	49 f0       	breq	.+18     	; 0x54 <__SREG__+0x15>
  42:	ef e5       	ldi	r30, 0x5F	; 95
  44:	f9 e0       	ldi	r31, 0x09	; 9
  46:	31 97       	sbiw	r30, 0x01	; 1
  48:	f1 f7       	brne	.-4      	; 0x46 <__SREG__+0x7>
  4a:	00 c0       	rjmp	.+0      	; 0x4c <__SREG__+0xd>
  4c:	00 00       	nop
  4e:	2f 5f       	subi	r18, 0xFF	; 255
  50:	3f 4f       	sbci	r19, 0xFF	; 255
  52:	f4 cf       	rjmp	.-24     	; 0x3c <delay_ms+0x4>
  54:	08 95       	ret

00000056 <adc_init>:
  56:	86 e8       	ldi	r24, 0x86	; 134
  58:	86 b9       	out	0x06, r24	; 6
  5a:	a4 9a       	sbi	0x14, 4	; 20
  5c:	08 95       	ret

0000005e <read_adc>:
  5e:	87 b9       	out	0x07, r24	; 7
  60:	80 e2       	ldi	r24, 0x20	; 32
  62:	8a 95       	dec	r24
  64:	f1 f7       	brne	.-4      	; 0x62 <read_adc+0x4>
  66:	36 9a       	sbi	0x06, 6	; 6
  68:	34 9b       	sbis	0x06, 4	; 6
  6a:	fe cf       	rjmp	.-4      	; 0x68 <read_adc+0xa>
  6c:	34 9a       	sbi	0x06, 4	; 6
  6e:	84 b1       	in	r24, 0x04	; 4
  70:	95 b1       	in	r25, 0x05	; 5
  72:	08 95       	ret

00000074 <main>:
  74:	bb 9a       	sbi	0x17, 3	; 23
  76:	ef df       	rcall	.-34     	; 0x56 <adc_init>
  78:	c0 e0       	ldi	r28, 0x00	; 0
  7a:	d0 e0       	ldi	r29, 0x00	; 0
  7c:	00 e0       	ldi	r16, 0x00	; 0
  7e:	10 e0       	ldi	r17, 0x00	; 0
  80:	8a e0       	ldi	r24, 0x0A	; 10
  82:	a8 2e       	mov	r10, r24
  84:	b1 2c       	mov	r11, r1
  86:	b0 99       	sbic	0x16, 0	; 22
  88:	05 c0       	rjmp	.+10     	; 0x94 <main+0x20>
  8a:	08 32       	cpi	r16, 0x28	; 40
  8c:	23 e2       	ldi	r18, 0x23	; 35
  8e:	12 07       	cpc	r17, r18
  90:	64 f4       	brge	.+24     	; 0xaa <__stack+0xb>
  92:	07 c0       	rjmp	.+14     	; 0xa2 <__stack+0x3>
  94:	8a e0       	ldi	r24, 0x0A	; 10
  96:	90 e0       	ldi	r25, 0x00	; 0
  98:	cf df       	rcall	.-98     	; 0x38 <delay_ms>
  9a:	b0 9b       	sbis	0x16, 0	; 22
  9c:	f6 cf       	rjmp	.-20     	; 0x8a <main+0x16>
  9e:	00 e0       	ldi	r16, 0x00	; 0
  a0:	10 e0       	ldi	r17, 0x00	; 0
  a2:	d1 2c       	mov	r13, r1
  a4:	e1 2c       	mov	r14, r1
  a6:	f1 2c       	mov	r15, r1
  a8:	04 c0       	rjmp	.+8      	; 0xb2 <__stack+0x13>
  aa:	c3 98       	cbi	0x18, 3	; 24
  ac:	c0 e0       	ldi	r28, 0x00	; 0
  ae:	d0 e0       	ldi	r29, 0x00	; 0
  b0:	ea cf       	rjmp	.-44     	; 0x86 <main+0x12>
  b2:	80 ef       	ldi	r24, 0xF0	; 240
  b4:	90 e0       	ldi	r25, 0x00	; 0
  b6:	01 97       	sbiw	r24, 0x01	; 1
  b8:	f1 f7       	brne	.-4      	; 0xb6 <__stack+0x17>
  ba:	82 e0       	ldi	r24, 0x02	; 2
  bc:	d0 df       	rcall	.-96     	; 0x5e <read_adc>
  be:	e8 0e       	add	r14, r24
  c0:	f9 1e       	adc	r15, r25
  c2:	d3 94       	inc	r13
  c4:	9a e0       	ldi	r25, 0x0A	; 10
  c6:	d9 12       	cpse	r13, r25
  c8:	f4 cf       	rjmp	.-24     	; 0xb2 <__stack+0x13>
  ca:	c7 01       	movw	r24, r14
  cc:	b5 01       	movw	r22, r10
  ce:	1d d0       	rcall	.+58     	; 0x10a <__divmodhi4>
  d0:	6b 3d       	cpi	r22, 0xDB	; 219
  d2:	23 e0       	ldi	r18, 0x03	; 3
  d4:	72 07       	cpc	r23, r18
  d6:	24 f0       	brlt	.+8      	; 0xe0 <__stack+0x41>
  d8:	c3 98       	cbi	0x18, 3	; 24
  da:	c0 e0       	ldi	r28, 0x00	; 0
  dc:	d0 e0       	ldi	r29, 0x00	; 0
  de:	09 c0       	rjmp	.+18     	; 0xf2 <__stack+0x53>
  e0:	61 3d       	cpi	r22, 0xD1	; 209
  e2:	73 40       	sbci	r23, 0x03	; 3
  e4:	34 f4       	brge	.+12     	; 0xf2 <__stack+0x53>
  e6:	c8 35       	cpi	r28, 0x58	; 88
  e8:	92 e0       	ldi	r25, 0x02	; 2
  ea:	d9 07       	cpc	r29, r25
  ec:	14 f4       	brge	.+4      	; 0xf2 <__stack+0x53>
  ee:	21 96       	adiw	r28, 0x01	; 1
  f0:	c3 9a       	sbi	0x18, 3	; 24
  f2:	0f 5f       	subi	r16, 0xFF	; 255
  f4:	1f 4f       	sbci	r17, 0xFF	; 255
  f6:	2f e7       	ldi	r18, 0x7F	; 127
  f8:	8b e9       	ldi	r24, 0x9B	; 155
  fa:	92 e0       	ldi	r25, 0x02	; 2
  fc:	21 50       	subi	r18, 0x01	; 1
  fe:	80 40       	sbci	r24, 0x00	; 0
 100:	90 40       	sbci	r25, 0x00	; 0
 102:	e1 f7       	brne	.-8      	; 0xfc <__stack+0x5d>
 104:	00 c0       	rjmp	.+0      	; 0x106 <__stack+0x67>
 106:	00 00       	nop
 108:	be cf       	rjmp	.-132    	; 0x86 <main+0x12>

0000010a <__divmodhi4>:
 10a:	97 fb       	bst	r25, 7
 10c:	07 2e       	mov	r0, r23
 10e:	16 f4       	brtc	.+4      	; 0x114 <__divmodhi4+0xa>
 110:	00 94       	com	r0
 112:	06 d0       	rcall	.+12     	; 0x120 <__divmodhi4_neg1>
 114:	77 fd       	sbrc	r23, 7
 116:	08 d0       	rcall	.+16     	; 0x128 <__divmodhi4_neg2>
 118:	0b d0       	rcall	.+22     	; 0x130 <__udivmodhi4>
 11a:	07 fc       	sbrc	r0, 7
 11c:	05 d0       	rcall	.+10     	; 0x128 <__divmodhi4_neg2>
 11e:	3e f4       	brtc	.+14     	; 0x12e <__divmodhi4_exit>

00000120 <__divmodhi4_neg1>:
 120:	90 95       	com	r25
 122:	81 95       	neg	r24
 124:	9f 4f       	sbci	r25, 0xFF	; 255
 126:	08 95       	ret

00000128 <__divmodhi4_neg2>:
 128:	70 95       	com	r23
 12a:	61 95       	neg	r22
 12c:	7f 4f       	sbci	r23, 0xFF	; 255

0000012e <__divmodhi4_exit>:
 12e:	08 95       	ret

00000130 <__udivmodhi4>:
 130:	aa 1b       	sub	r26, r26
 132:	bb 1b       	sub	r27, r27
 134:	51 e1       	ldi	r21, 0x11	; 17
 136:	07 c0       	rjmp	.+14     	; 0x146 <__udivmodhi4_ep>

00000138 <__udivmodhi4_loop>:
 138:	aa 1f       	adc	r26, r26
 13a:	bb 1f       	adc	r27, r27
 13c:	a6 17       	cp	r26, r22
 13e:	b7 07       	cpc	r27, r23
 140:	10 f0       	brcs	.+4      	; 0x146 <__udivmodhi4_ep>
 142:	a6 1b       	sub	r26, r22
 144:	b7 0b       	sbc	r27, r23

00000146 <__udivmodhi4_ep>:
 146:	88 1f       	adc	r24, r24
 148:	99 1f       	adc	r25, r25
 14a:	5a 95       	dec	r21
 14c:	a9 f7       	brne	.-22     	; 0x138 <__udivmodhi4_loop>
 14e:	80 95       	com	r24
 150:	90 95       	com	r25
 152:	bc 01       	movw	r22, r24
 154:	cd 01       	movw	r24, r26
 156:	08 95       	ret

00000158 <_exit>:
 158:	f8 94       	cli

0000015a <__stop_program>:
 15a:	ff cf       	rjmp	.-2      	; 0x15a <__stop_program>
